target datalayout = "e-m:e-p270:32:32-p271:32:32-p272:64:64-i64:64-i128:128-f80:128-n8:16:32:64-S128"
target triple = "x86_64-pc-linux-gnu"

%class.dtTileCache = type { i32, i32, ptr, ptr, ptr, i32, i32, %struct.dtTileCacheParams, ptr, ptr, ptr, ptr, ptr, [64 x %"struct.dtTileCache::ObstacleRequest"], i32, [64 x i32], i32 }
%struct.dtTileCacheParams = type { [3 x float], float, float, i32, i32, float, float, float, float, i32, i32 }
%"struct.dtTileCache::ObstacleRequest" = type { i32, i32 }
%struct.dtCompressedTile = type { i32, ptr, ptr, i32, ptr, i32, i32, ptr }

; Function Attrs: mustprogress nounwind uwtable
define linkonce_odr noundef i32 @_ZNK11dtTileCache16decodeTileIdSaltEj(ptr noundef nonnull align 8 dereferenceable(912) %0, i32 noundef %1) #2 comdat align 2 {
  %3 = alloca ptr, align 8
  %4 = alloca i32, align 4
  %5 = alloca i32, align 4
  store ptr %0, ptr %3, align 8
  store i32 %1, ptr %4, align 4
  %6 = load ptr, ptr %3, align 8
  %7 = getelementptr inbounds %class.dtTileCache, ptr %6, i32 0, i32 5
  %8 = load i32, ptr %7, align 8
  %9 = shl i32 1, %8
  %10 = sub i32 %9, 1
  store i32 %10, ptr %5, align 4
  %11 = load i32, ptr %4, align 4
  %12 = getelementptr inbounds %class.dtTileCache, ptr %6, i32 0, i32 6
  %13 = load i32, ptr %12, align 4
  %14 = lshr i32 %11, %13
  %15 = load i32, ptr %5, align 4
  %16 = and i32 %14, %15
  ret i32 %16
}

; Function Attrs: mustprogress nounwind uwtable
define linkonce_odr noundef i32 @_ZNK11dtTileCache16decodeTileIdTileEj(ptr noundef nonnull align 8 dereferenceable(912) %0, i32 noundef %1) #2 comdat align 2 {
  %3 = alloca ptr, align 8
  %4 = alloca i32, align 4
  %5 = alloca i32, align 4
  store ptr %0, ptr %3, align 8
  store i32 %1, ptr %4, align 4
  %6 = load ptr, ptr %3, align 8
  %7 = getelementptr inbounds %class.dtTileCache, ptr %6, i32 0, i32 6
  %8 = load i32, ptr %7, align 4
  %9 = shl i32 1, %8
  %10 = sub i32 %9, 1
  store i32 %10, ptr %5, align 4
  %11 = load i32, ptr %4, align 4
  %12 = load i32, ptr %5, align 4
  %13 = and i32 %11, %12
  ret i32 %13
}

; Function Attrs: mustprogress uwtable
define noundef ptr @_ZNK11dtTileCache12getTileByRefEj(ptr noundef nonnull align 8 dereferenceable(912) %0, i32 noundef %1) #0 align 2 {
  %3 = alloca ptr, align 8
  %4 = alloca ptr, align 8
  %5 = alloca i32, align 4
  %6 = alloca i32, align 4
  %7 = alloca i32, align 4
  %8 = alloca ptr, align 8
  store ptr %0, ptr %4, align 8
  store i32 %1, ptr %5, align 4
  %9 = load ptr, ptr %4, align 8
  %10 = load i32, ptr %5, align 4
  %11 = icmp ne i32 %10, 0
  br i1 %11, label %13, label %12

12:                                               ; preds = %2
  store ptr null, ptr %3, align 8
  br label %38

13:                                               ; preds = %2
  %14 = load i32, ptr %5, align 4
  %15 = call noundef i32 @_ZNK11dtTileCache16decodeTileIdTileEj(ptr noundef nonnull align 8 dereferenceable(912) %9, i32 noundef %14)
  store i32 %15, ptr %6, align 4
  %16 = load i32, ptr %5, align 4
  %17 = call noundef i32 @_ZNK11dtTileCache16decodeTileIdSaltEj(ptr noundef nonnull align 8 dereferenceable(912) %9, i32 noundef %16)
  store i32 %17, ptr %7, align 4
  %18 = load i32, ptr %6, align 4
  %19 = getelementptr inbounds %class.dtTileCache, ptr %9, i32 0, i32 7
  %20 = getelementptr inbounds %struct.dtTileCacheParams, ptr %19, i32 0, i32 9
  %21 = load i32, ptr %20, align 4
  %22 = icmp sge i32 %18, %21
  br i1 %22, label %23, label %24

23:                                               ; preds = %13
  store ptr null, ptr %3, align 8
  br label %38

24:                                               ; preds = %13
  %25 = getelementptr inbounds %class.dtTileCache, ptr %9, i32 0, i32 4
  %26 = load ptr, ptr %25, align 8
  %27 = load i32, ptr %6, align 4
  %28 = zext i32 %27 to i64
  %29 = getelementptr inbounds %struct.dtCompressedTile, ptr %26, i64 %28
  store ptr %29, ptr %8, align 8
  %30 = load ptr, ptr %8, align 8
  %31 = getelementptr inbounds %struct.dtCompressedTile, ptr %30, i32 0, i32 0
  %32 = load i32, ptr %31, align 8
  %33 = load i32, ptr %7, align 4
  %34 = icmp ne i32 %32, %33
  br i1 %34, label %35, label %36

35:                                               ; preds = %24
  store ptr null, ptr %3, align 8
  br label %38

36:                                               ; preds = %24
  %37 = load ptr, ptr %8, align 8
  store ptr %37, ptr %3, align 8
  br label %38

38:                                               ; preds = %36, %35, %23, %12
  %39 = load ptr, ptr %3, align 8
  ret ptr %39
}