; Function Attrs: mustprogress nofree norecurse nosync nounwind willreturn memory(read, inaccessiblemem: none) uwtable
define noundef ptr @_ZNK11dtTileCache12getTileByRefEj(ptr noundef nonnull readonly align 8 captures(none) dereferenceable(912) %0, i32 noundef %1) local_unnamed_addr #7 align 2 {
  %.not = icmp eq i32 %1, 0
  br i1 %.not, label %21, label %3

3:                                                ; preds = %2
  %4 = getelementptr inbounds nuw i8, ptr %0, i64 36
  %5 = load i32, ptr %4, align 4
  %notmask.i = shl nsw i32 -1, %5
  %6 = xor i32 %notmask.i, -1
  %7 = and i32 %1, %6
  %8 = getelementptr inbounds nuw i8, ptr %0, i64 84
  %9 = load i32, ptr %8, align 4
  %.not11 = icmp slt i32 %7, %9
  br i1 %.not11, label %10, label %21

10:                                               ; preds = %3
  %11 = lshr i32 %1, %5
  %12 = getelementptr inbounds nuw i8, ptr %0, i64 32
  %13 = load i32, ptr %12, align 8
  %notmask.i13 = shl nsw i32 -1, %13
  %14 = xor i32 %notmask.i13, -1
  %15 = and i32 %11, %14
  %16 = getelementptr inbounds nuw i8, ptr %0, i64 24
  %17 = load ptr, ptr %16, align 8
  %18 = zext nneg i32 %7 to i64
  %19 = getelementptr inbounds nuw %struct.dtCompressedTile, ptr %17, i64 %18
  %20 = load i32, ptr %19, align 8
  %.not12 = icmp eq i32 %20, %15
  %. = select i1 %.not12, ptr %19, ptr null
  br label %21

21:                                               ; preds = %10, %3, %2
  %.0 = phi ptr [ null, %2 ], [ null, %3 ], [ %., %10 ]
  ret ptr %.0
}